Certificate:
    Data:
        Version: 3 (0x2)
        Serial Number: 1 (0x1)
        Signature Algorithm: sha1WithRSAEncryption
        Issuer: C=BA, L=Banja Luka, O=Elektrotehnicki fakultet, CN=RootCA/emailAddress=rootca@gmail.com
        Validity
            Not Before: Jan 23 17:17:52 2022 GMT
            Not After : Jan 23 17:17:52 2023 GMT
        Subject: C=BA, O=Elektrotehnicki fakultet, CN=CA1/emailAddress=ca1@gmail.com
        Subject Public Key Info:
            Public Key Algorithm: rsaEncryption
                Public-Key: (4096 bit)
                Modulus:
                    00:ba:3c:1d:59:00:8c:5d:b5:fe:12:d1:6a:5b:e9:
                    98:61:a2:ec:48:62:7f:08:df:cd:c2:93:c1:9c:3b:
                    31:0f:3f:09:96:51:04:ac:bd:a4:89:83:33:f7:a1:
                    0e:df:18:5d:06:85:7c:57:8b:d9:cc:e2:a6:6a:ba:
                    4a:50:88:09:d1:cf:a5:54:6e:84:95:ad:96:e1:44:
                    d9:1e:1e:06:4a:11:1d:17:d4:60:d4:b5:6e:5c:20:
                    e1:cf:0b:03:3e:d1:1b:e5:69:26:d3:8a:d7:d6:df:
                    a2:0b:1e:3a:3b:9c:f1:f1:9e:bb:91:98:d4:14:08:
                    9a:0a:3b:04:f7:a4:f3:cc:c4:fc:41:36:98:27:ea:
                    60:af:95:03:ef:60:ef:41:c7:c6:a3:12:9d:8d:b2:
                    59:d3:3b:51:21:3c:11:6d:9a:72:60:01:4c:7b:09:
                    05:dd:61:5f:b5:db:2c:f1:5f:df:be:34:fb:4d:af:
                    20:4a:4d:8d:7b:e0:9c:f2:7a:19:f0:b9:bc:fd:e0:
                    2e:d0:52:e1:77:37:e0:ed:db:15:ca:c3:42:1c:85:
                    14:99:d1:ad:57:42:9d:70:04:27:08:da:26:c5:3b:
                    d5:37:9d:ed:cc:1e:08:0f:f7:b7:9f:4b:5b:d9:2f:
                    fd:35:3c:4a:c1:c9:c6:a4:0d:d3:e1:fa:40:62:24:
                    82:21:aa:3b:bb:9c:ca:82:a3:4d:f6:2d:68:4e:70:
                    8c:85:09:d0:42:f1:6a:d3:ad:ec:70:8c:cd:94:69:
                    34:10:f8:ae:f8:52:30:ca:5c:9a:83:ef:de:4f:91:
                    80:ce:05:c9:41:18:67:f1:68:0b:d8:86:2b:c9:97:
                    6d:da:46:20:7a:89:29:a8:df:8c:33:cc:66:c3:72:
                    d8:ba:dd:f1:04:22:39:8b:b5:ed:28:7f:52:24:6b:
                    b2:67:f5:45:88:4e:70:3e:59:9a:93:2b:89:3b:1a:
                    83:37:2f:b8:28:56:00:c9:79:d5:db:72:81:78:57:
                    5b:73:54:dd:b2:f4:f9:bd:b9:59:ef:2e:f1:1c:ab:
                    c4:a5:ac:65:0b:45:d6:7e:74:e7:d8:3e:ea:79:75:
                    49:27:3f:e9:19:85:4c:f2:a3:5b:12:10:71:37:06:
                    8b:95:3d:01:22:c4:b6:b4:27:f8:6e:47:a2:bb:54:
                    79:df:19:b5:88:58:b5:49:ec:45:d8:12:00:ae:5c:
                    ef:a4:63:90:5c:f3:9b:da:b0:ec:e3:bc:ed:6a:db:
                    88:6c:16:5b:fa:a3:ca:b7:27:3d:20:54:90:c9:cb:
                    51:91:54:09:ef:d2:28:ad:33:06:7d:1b:43:2f:6c:
                    a8:51:4f:0f:2d:dd:ce:c9:9d:04:0a:e0:99:77:2f:
                    d1:70:05
                Exponent: 65537 (0x10001)
        X509v3 extensions:
            X509v3 Basic Constraints: 
                CA:TRUE
            X509v3 Key Usage: 
                Digital Signature, CRL Sign
            Netscape Comment: 
                OpenSSL Generated Certificate
            X509v3 Subject Key Identifier: 
                29:D0:BB:30:C2:36:CD:E7:FA:C7:FE:F9:A1:29:7E:B2:11:3C:97:1C
            X509v3 Authority Key Identifier: 
                BB:2D:6F:E3:4B:CB:9C:FB:BF:51:D0:AC:D7:1F:42:9E:D1:7D:23:20
            X509v3 CRL Distribution Points: 
                Full Name:
                  URI:http://192.168.21.89/rootcrl.pem
    Signature Algorithm: sha1WithRSAEncryption
    Signature Value:
        03:cd:e5:96:59:be:81:f2:7d:0a:79:82:2d:4b:de:36:f6:f0:
        93:ac:be:51:c1:bb:17:14:a0:b8:1f:55:a0:62:25:c8:95:08:
        fe:f2:fa:ca:6f:40:5c:ac:da:a0:cc:30:db:84:47:0a:a5:be:
        9d:ca:55:c3:46:75:26:55:03:00:92:3a:32:f9:b3:42:97:7a:
        59:60:5a:fb:d5:25:2a:9d:3f:88:75:53:27:c0:99:1d:d9:9b:
        18:e9:e3:dc:5c:7a:22:ce:d1:79:bd:15:00:6f:e6:e3:cf:20:
        fe:9f:5e:88:bf:86:68:70:21:07:88:16:f0:d8:87:f6:07:23:
        1c:50:8d:73:83:ea:17:c9:1d:fd:fd:89:ac:5d:71:54:d8:73:
        f4:ca:24:ba:03:92:f3:a7:00:6b:86:5a:da:b1:5d:2a:86:d0:
        41:d2:b4:b6:4e:a9:7e:d2:01:35:3c:27:65:ce:07:7e:25:43:
        32:fc:e6:f6:01:86:06:46:15:bf:d4:0c:79:dd:84:89:64:2d:
        14:71:19:42:79:a5:dc:2b:51:ef:57:c5:65:c1:b0:dd:d7:d8:
        62:5c:f4:00:5f:25:64:fc:80:49:6d:82:96:7f:4e:7d:15:6b:
        93:3d:0a:f1:a3:d8:21:1a:05:4a:1d:50:a3:94:41:97:14:c2:
        97:b9:df:e7
-----BEGIN CERTIFICATE-----
MIIFDjCCA/agAwIBAgIBATANBgkqhkiG9w0BAQUFADB3MQswCQYDVQQGEwJCQTET
MBEGA1UEBxMKQmFuamEgTHVrYTEhMB8GA1UEChMYRWxla3Ryb3RlaG5pY2tpIGZh
a3VsdGV0MQ8wDQYDVQQDEwZSb290Q0ExHzAdBgkqhkiG9w0BCQEWEHJvb3RjYUBn
bWFpbC5jb20wHhcNMjIwMTIzMTcxNzUyWhcNMjMwMTIzMTcxNzUyWjBcMQswCQYD
VQQGEwJCQTEhMB8GA1UEChMYRWxla3Ryb3RlaG5pY2tpIGZha3VsdGV0MQwwCgYD
VQQDEwNDQTExHDAaBgkqhkiG9w0BCQEWDWNhMUBnbWFpbC5jb20wggIiMA0GCSqG
SIb3DQEBAQUAA4ICDwAwggIKAoICAQC6PB1ZAIxdtf4S0Wpb6ZhhouxIYn8I383C
k8GcOzEPPwmWUQSsvaSJgzP3oQ7fGF0GhXxXi9nM4qZqukpQiAnRz6VUboSVrZbh
RNkeHgZKER0X1GDUtW5cIOHPCwM+0RvlaSbTitfW36ILHjo7nPHxnruRmNQUCJoK
OwT3pPPMxPxBNpgn6mCvlQPvYO9Bx8ajEp2NslnTO1EhPBFtmnJgAUx7CQXdYV+1
2yzxX9++NPtNryBKTY174Jzyehnwubz94C7QUuF3N+Dt2xXKw0IchRSZ0a1XQp1w
BCcI2ibFO9U3ne3MHggP97efS1vZL/01PErBycakDdPh+kBiJIIhqju7nMqCo032
LWhOcIyFCdBC8WrTrexwjM2UaTQQ+K74UjDKXJqD795PkYDOBclBGGfxaAvYhivJ
l23aRiB6iSmo34wzzGbDcti63fEEIjmLte0of1Ika7Jn9UWITnA+WZqTK4k7GoM3
L7goVgDJedXbcoF4V1tzVN2y9Pm9uVnvLvEcq8SlrGULRdZ+dOfYPup5dUknP+kZ
hUzyo1sSEHE3BouVPQEixLa0J/huR6K7VHnfGbWIWLVJ7EXYEgCuXO+kY5Bc85va
sOzjvO1q24hsFlv6o8q3Jz0gVJDJy1GRVAnv0iitMwZ9G0MvbKhRTw8t3c7JnQQK
4Jl3L9FwBQIDAQABo4G/MIG8MAwGA1UdEwQFMAMBAf8wCwYDVR0PBAQDAgGCMCwG
CWCGSAGG+EIBDQQfFh1PcGVuU1NMIEdlbmVyYXRlZCBDZXJ0aWZpY2F0ZTAdBgNV
HQ4EFgQUKdC7MMI2zef6x/75oSl+shE8lxwwHwYDVR0jBBgwFoAUuy1v40vLnPu/
UdCs1x9CntF9IyAwMQYDVR0fBCowKDAmoCSgIoYgaHR0cDovLzE5Mi4xNjguMjEu
ODkvcm9vdGNybC5wZW0wDQYJKoZIhvcNAQEFBQADggEBAAPN5ZZZvoHyfQp5gi1L
3jb28JOsvlHBuxcUoLgfVaBiJciVCP7y+spvQFys2qDMMNuERwqlvp3KVcNGdSZV
AwCSOjL5s0KXellgWvvVJSqdP4h1UyfAmR3Zmxjp49xceiLO0Xm9FQBv5uPPIP6f
Xoi/hmhwIQeIFvDYh/YHIxxQjXOD6hfJHf39iaxdcVTYc/TKJLoDkvOnAGuGWtqx
XSqG0EHStLZOqX7SATU8J2XOB34lQzL85vYBhgZGFb/UDHndhIlkLRRxGUJ5pdwr
Ue9XxWXBsN3X2GJc9ABfJWT8gEltgpZ/Tn0Va5M9CvGj2CEaBUodUKOUQZcUwpe5
3+c=
-----END CERTIFICATE-----
